target datalayout = "e-m:e-p270:32:32-p271:32:32-p272:64:64-i64:64-i128:128-f80:128-n8:16:32:64-S128"
target triple = "x86_64-unknown-linux-gnu"

%"struct.rocksdb::PartitionerRequest" = type { ptr, ptr, i64 }

; Function Attrs: mustprogress nounwind uwtable
define linkonce_odr void @_ZN7rocksdb18PartitionerRequestC2ERKNS_5SliceES3_m(ptr noundef nonnull align 8 dereferenceable(24) %this, ptr noundef nonnull align 8 dereferenceable(16) %prev_user_key_, ptr noundef nonnull align 8 dereferenceable(16) %current_user_key_, i64 noundef %current_output_file_size_) unnamed_addr #3 comdat align 2 {
entry:
  %this.addr = alloca ptr, align 8
  %prev_user_key_.addr = alloca ptr, align 8
  %current_user_key_.addr = alloca ptr, align 8
  %current_output_file_size_.addr = alloca i64, align 8
  store ptr %this, ptr %this.addr, align 8
  store ptr %prev_user_key_, ptr %prev_user_key_.addr, align 8
  store ptr %current_user_key_, ptr %current_user_key_.addr, align 8
  store i64 %current_output_file_size_, ptr %current_output_file_size_.addr, align 8
  %this1 = load ptr, ptr %this.addr, align 8
  %prev_user_key = getelementptr inbounds %"struct.rocksdb::PartitionerRequest", ptr %this1, i32 0, i32 0
  %0 = load ptr, ptr %prev_user_key_.addr, align 8
  store ptr %0, ptr %prev_user_key, align 8
  %current_user_key = getelementptr inbounds %"struct.rocksdb::PartitionerRequest", ptr %this1, i32 0, i32 1
  %1 = load ptr, ptr %current_user_key_.addr, align 8
  store ptr %1, ptr %current_user_key, align 8
  %current_output_file_size = getelementptr inbounds %"struct.rocksdb::PartitionerRequest", ptr %this1, i32 0, i32 2
  %2 = load i64, ptr %current_output_file_size_.addr, align 8
  store i64 %2, ptr %current_output_file_size, align 8
  ret void
}

; Function Attrs: mustprogress uwtable
define noundef zeroext i1 @_ZN7rocksdb25SstPartitionerFixedPrefix16CanDoTrivialMoveERKNS_5SliceES3_(ptr noundef nonnull align 8 dereferenceable(16) %this, ptr noundef nonnull align 8 dereferenceable(16) %smallest_user_key, ptr noundef nonnull align 8 dereferenceable(16) %largest_user_key) unnamed_addr #2 align 2 {
entry:
  %this.addr = alloca ptr, align 8
  %smallest_user_key.addr = alloca ptr, align 8
  %largest_user_key.addr = alloca ptr, align 8
  %ref.tmp = alloca %"struct.rocksdb::PartitionerRequest", align 8
  store ptr %this, ptr %this.addr, align 8
  store ptr %smallest_user_key, ptr %smallest_user_key.addr, align 8
  store ptr %largest_user_key, ptr %largest_user_key.addr, align 8
  %this1 = load ptr, ptr %this.addr, align 8
  %0 = load ptr, ptr %smallest_user_key.addr, align 8
  %1 = load ptr, ptr %largest_user_key.addr, align 8
  call void @_ZN7rocksdb18PartitionerRequestC2ERKNS_5SliceES3_m(ptr noundef nonnull align 8 dereferenceable(24) %ref.tmp, ptr noundef nonnull align 8 dereferenceable(16) %0, ptr noundef nonnull align 8 dereferenceable(16) %1, i64 noundef 0)
  %vtable = load ptr, ptr %this1, align 8
  %vfn = getelementptr inbounds ptr, ptr %vtable, i64 3
  %2 = load ptr, ptr %vfn, align 8
  %call = call noundef signext i8 %2(ptr noundef nonnull align 8 dereferenceable(16) %this1, ptr noundef nonnull align 8 dereferenceable(24) %ref.tmp)
  %conv = sext i8 %call to i32
  %cmp = icmp eq i32 %conv, 0
  ret i1 %cmp
}