; Function Attrs: mustprogress uwtable
define noundef zeroext i1 @_ZN7rocksdb25SstPartitionerFixedPrefix16CanDoTrivialMoveERKNS_5SliceES3_(ptr noundef nonnull align 8 dereferenceable(16) %this, ptr noundef nonnull align 8 dereferenceable(16) %smallest_user_key, ptr noundef nonnull align 8 dereferenceable(16) %largest_user_key) unnamed_addr #3 align 2 {
entry:
  %ref.tmp = alloca %"struct.rocksdb::PartitionerRequest", align 8
  store ptr %smallest_user_key, ptr %ref.tmp, align 8
  %current_user_key.i = getelementptr inbounds i8, ptr %ref.tmp, i64 8
  store ptr %largest_user_key, ptr %current_user_key.i, align 8
  %current_output_file_size.i = getelementptr inbounds i8, ptr %ref.tmp, i64 16
  store i64 0, ptr %current_output_file_size.i, align 8
  %vtable = load ptr, ptr %this, align 8
  %vfn = getelementptr inbounds i8, ptr %vtable, i64 24
  %0 = load ptr, ptr %vfn, align 8
  %call = call noundef signext i8 %0(ptr noundef nonnull align 8 dereferenceable(16) %this, ptr noundef nonnull align 8 dereferenceable(24) %ref.tmp)
  %cmp = icmp eq i8 %call, 0
  ret i1 %cmp
}